target datalayout = "e-m:e-p270:32:32-p271:32:32-p272:64:64-i64:64-i128:128-f80:128-n8:16:32:64-S128"
target triple = "x86_64-pc-linux-gnu"

%struct.ItemPointerData = type { %struct.BlockIdData, i16 }
%struct.BlockIdData = type { i16, i16 }
%struct.BTScanOpaqueData = type { i8, i32, ptr, i32, i8, i8, i8, ptr, ptr, ptr, ptr, i32, ptr, ptr, i32, %struct.BTScanPosData, %struct.BTScanPosData }
%struct.BTScanPosData = type { i32, i32, i32, i32, i64, i32, i32, i8, i8, i32, i32, i32, [1358 x %struct.BTScanPosItem] }
%struct.BTScanPosItem = type { %struct.ItemPointerData, i16, i16 }
%struct.IndexScanDescData = type { ptr, ptr, ptr, i32, i32, ptr, ptr, i8, i8, i8, i8, i8, ptr, ptr, ptr, ptr, ptr, %struct.ItemPointerData, i8, ptr, i8, ptr, ptr, i8, ptr }

; Function Attrs: inlinehint nounwind uwtable
define internal zeroext i1 @BlockNumberIsValid(i32 noundef %0) #2 {
  %2 = alloca i32, align 4
  store i32 %0, ptr %2, align 4
  %3 = load i32, ptr %2, align 4
  %4 = icmp ne i32 %3, -1
  ret i1 %4
}

; Function Attrs: inlinehint nounwind uwtable
define internal zeroext i1 @BufferIsValid(i32 noundef %0) #2 {
  %2 = alloca i32, align 4
  store i32 %0, ptr %2, align 4
  %3 = load i32, ptr %2, align 4
  %4 = icmp ne i32 %3, 0
  ret i1 %4
}

; Function Attrs: nounwind uwtable
define dso_local void @btmarkpos(ptr noundef %0) #0 {
  %2 = alloca ptr, align 8
  %3 = alloca ptr, align 8
  store ptr %0, ptr %2, align 8
  call void @llvm.lifetime.start.p0(i64 8, ptr %3) #8
  %4 = load ptr, ptr %2, align 8
  %5 = getelementptr inbounds nuw %struct.IndexScanDescData, ptr %4, i32 0, i32 12
  %6 = load ptr, ptr %5, align 8
  store ptr %6, ptr %3, align 8
  br label %7

7:                                                ; preds = %1
  %8 = load ptr, ptr %3, align 8
  %9 = getelementptr inbounds nuw %struct.BTScanOpaqueData, ptr %8, i32 0, i32 16
  %10 = getelementptr inbounds nuw %struct.BTScanPosData, ptr %9, i32 0, i32 0
  %11 = load i32, ptr %10, align 8
  %12 = call zeroext i1 @BufferIsValid(i32 noundef %11)
  br i1 %12, label %13, label %24

13:                                               ; preds = %7
  br label %14

14:                                               ; preds = %13
  %15 = load ptr, ptr %3, align 8
  %16 = getelementptr inbounds nuw %struct.BTScanOpaqueData, ptr %15, i32 0, i32 16
  %17 = getelementptr inbounds nuw %struct.BTScanPosData, ptr %16, i32 0, i32 0
  %18 = load i32, ptr %17, align 8
  call void @ReleaseBuffer(i32 noundef %18)
  %19 = load ptr, ptr %3, align 8
  %20 = getelementptr inbounds nuw %struct.BTScanOpaqueData, ptr %19, i32 0, i32 16
  %21 = getelementptr inbounds nuw %struct.BTScanPosData, ptr %20, i32 0, i32 0
  store i32 0, ptr %21, align 8
  br label %22

22:                                               ; preds = %14
  br label %23

23:                                               ; preds = %22
  br label %24

24:                                               ; preds = %23, %7
  br label %25

25:                                               ; preds = %24
  br label %26

26:                                               ; preds = %25
  %27 = load ptr, ptr %3, align 8
  %28 = getelementptr inbounds nuw %struct.BTScanOpaqueData, ptr %27, i32 0, i32 15
  %29 = getelementptr inbounds nuw %struct.BTScanPosData, ptr %28, i32 0, i32 1
  %30 = load i32, ptr %29, align 4
  %31 = call zeroext i1 @BlockNumberIsValid(i32 noundef %30)
  br i1 %31, label %32, label %39

32:                                               ; preds = %26
  %33 = load ptr, ptr %3, align 8
  %34 = getelementptr inbounds nuw %struct.BTScanOpaqueData, ptr %33, i32 0, i32 15
  %35 = getelementptr inbounds nuw %struct.BTScanPosData, ptr %34, i32 0, i32 11
  %36 = load i32, ptr %35, align 4
  %37 = load ptr, ptr %3, align 8
  %38 = getelementptr inbounds nuw %struct.BTScanOpaqueData, ptr %37, i32 0, i32 14
  store i32 %36, ptr %38, align 8
  br label %51

39:                                               ; preds = %26
  br label %40

40:                                               ; preds = %39
  %41 = load ptr, ptr %3, align 8
  %42 = getelementptr inbounds nuw %struct.BTScanOpaqueData, ptr %41, i32 0, i32 16
  %43 = getelementptr inbounds nuw %struct.BTScanPosData, ptr %42, i32 0, i32 0
  store i32 0, ptr %43, align 8
  %44 = load ptr, ptr %3, align 8
  %45 = getelementptr inbounds nuw %struct.BTScanOpaqueData, ptr %44, i32 0, i32 16
  %46 = getelementptr inbounds nuw %struct.BTScanPosData, ptr %45, i32 0, i32 1
  store i32 -1, ptr %46, align 4
  br label %47

47:                                               ; preds = %40
  br label %48

48:                                               ; preds = %47
  %49 = load ptr, ptr %3, align 8
  %50 = getelementptr inbounds nuw %struct.BTScanOpaqueData, ptr %49, i32 0, i32 14
  store i32 -1, ptr %50, align 8
  br label %51

51:                                               ; preds = %48, %32
  call void @llvm.lifetime.end.p0(i64 8, ptr %3) #8
  ret void
}