; Function Attrs: nounwind uwtable
define dso_local void @btmarkpos(ptr noundef readonly captures(none) %0) #0 {
  %2 = getelementptr inbounds nuw i8, ptr %0, i64 56
  %3 = load ptr, ptr %2, align 8
  %4 = getelementptr inbounds nuw i8, ptr %3, i64 13720
  %5 = load i32, ptr %4, align 8
  %.not = icmp eq i32 %5, 0
  br i1 %.not, label %7, label %6

6:                                                ; preds = %1
  tail call void @ReleaseBuffer(i32 noundef %5) #8
  store i32 0, ptr %4, align 8
  br label %7

7:                                                ; preds = %6, %1
  %8 = getelementptr inbounds nuw i8, ptr %3, i64 92
  %9 = load i32, ptr %8, align 4
  %.not10 = icmp eq i32 %9, -1
  br i1 %.not10, label %13, label %10

10:                                               ; preds = %7
  %11 = getelementptr inbounds nuw i8, ptr %3, i64 132
  %12 = load i32, ptr %11, align 4
  br label %15

13:                                               ; preds = %7
  store i32 0, ptr %4, align 8
  %14 = getelementptr inbounds nuw i8, ptr %3, i64 13724
  store i32 -1, ptr %14, align 4
  br label %15

15:                                               ; preds = %13, %10
  %.sink = phi i32 [ -1, %13 ], [ %12, %10 ]
  %16 = getelementptr inbounds nuw i8, ptr %3, i64 80
  store i32 %.sink, ptr %16, align 8
  ret void
}